; Function Attrs: mustprogress uwtable
define range(i32 0, 2) i32 @ImfTiledOutputSetFrameBuffer(ptr noundef nonnull %0, ptr noundef %1, i64 noundef %2, i64 noundef %3) local_unnamed_addr #8 personality ptr @__gxx_personality_v0 {
  invoke void @_ZN7Imf_3_419TiledRgbaOutputFile14setFrameBufferEPKNS_4RgbaEmm(ptr noundef nonnull align 8 dereferenceable(24) %0, ptr noundef %1, i64 noundef %2, i64 noundef %3)
          to label %18 unwind label %5

5:                                                ; preds = %4
  %6 = landingpad { ptr, i32 }
          catch ptr @_ZTISt9exception
  %7 = extractvalue { ptr, i32 } %6, 1
  %8 = tail call i32 @llvm.eh.typeid.for.p0(ptr nonnull @_ZTISt9exception) #24
  %9 = icmp eq i32 %7, %8
  br i1 %9, label %10, label %19

10:                                               ; preds = %5
  %11 = extractvalue { ptr, i32 } %6, 0
  %12 = tail call ptr @__cxa_begin_catch(ptr %11) #24
  %13 = load ptr, ptr %12, align 8, !tbaa !22
  %14 = getelementptr inbounds nuw i8, ptr %13, i64 16
  %15 = load ptr, ptr %14, align 8
  %16 = tail call noundef ptr %15(ptr noundef nonnull align 8 dereferenceable(8) %12) #24
  %17 = tail call ptr @strncpy(ptr noundef nonnull dereferenceable(1) @_ZN12_GLOBAL__N_112errorMessageE, ptr noundef nonnull dereferenceable(1) %16, i64 noundef 1023) #24
  store i8 0, ptr getelementptr inbounds nuw (i8, ptr @_ZN12_GLOBAL__N_112errorMessageE, i64 1023), align 1, !tbaa !15
  tail call void @__cxa_end_catch()
  br label %18

18:                                               ; preds = %4, %10
  %.0 = phi i32 [ 0, %10 ], [ 1, %4 ]
  ret i32 %.0

19:                                               ; preds = %5
  resume { ptr, i32 } %6
}